; Function Attrs: mustprogress nounwind uwtable
define hidden void @_ZN14ZMemoryManager17shrink_from_frontEP7ZMemorym(ptr nocapture noundef nonnull readonly align 8 dereferenceable(112) %0, ptr noundef %1, i64 noundef %2) local_unnamed_addr #0 align 2 {
  %4 = getelementptr inbounds i8, ptr %0, i64 80
  %5 = load ptr, ptr %4, align 8
  %.not = icmp eq ptr %5, null
  br i1 %.not, label %7, label %6

6:                                                ; preds = %3
  tail call void %5(ptr noundef %1, i64 noundef %2) #8
  br label %7

7:                                                ; preds = %6, %3
  %8 = load i64, ptr %1, align 8
  %9 = add i64 %8, %2
  store i64 %9, ptr %1, align 8
  ret void
}